target datalayout = "e-m:e-p270:32:32-p271:32:32-p272:64:64-i64:64-i128:128-f80:128-n8:16:32:64-S128"
target triple = "x86_64-pc-linux-gnu"

%struct._e_guid_t = type { i32, i16, i16, [8 x i8] }
%struct._guid_key = type { %struct._e_guid_t, i16 }
%struct._dcerpc_uuid_value = type { ptr, i32, i32, ptr, ptr, i32 }

@dcerpc_uuids = global ptr null, align 8

; Function Attrs: null_pointer_is_valid sspstrong uwtable
define void @dcerpc_init_from_handle(i32 noundef %0, ptr noundef %1, i16 noundef zeroext %2, ptr noundef %3) #0 {
  %5 = alloca i32, align 4
  %6 = alloca ptr, align 8
  %7 = alloca i16, align 2
  %8 = alloca ptr, align 8
  %9 = alloca ptr, align 8
  %10 = alloca ptr, align 8
  store i32 %0, ptr %5, align 4
  store ptr %1, ptr %6, align 8
  store i16 %2, ptr %7, align 2
  store ptr %3, ptr %8, align 8
  call void @llvm.lifetime.start.p0(i64 8, ptr %9) #19
  %11 = call noalias ptr @g_malloc(i64 noundef 20) #20
  store ptr %11, ptr %9, align 8
  call void @llvm.lifetime.start.p0(i64 8, ptr %10) #19
  %12 = call noalias ptr @g_malloc(i64 noundef 40) #20
  store ptr %12, ptr %10, align 8
  %13 = load ptr, ptr %9, align 8
  %14 = getelementptr inbounds nuw %struct._guid_key, ptr %13, i32 0, i32 0
  %15 = load ptr, ptr %6, align 8
  call void @llvm.memcpy.p0.p0.i64(ptr align 4 %14, ptr align 4 %15, i64 16, i1 false)
  %16 = load i16, ptr %7, align 2
  %17 = load ptr, ptr %9, align 8
  %18 = getelementptr inbounds nuw %struct._guid_key, ptr %17, i32 0, i32 1
  store i16 %16, ptr %18, align 4
  %19 = load i32, ptr %5, align 4
  %20 = call ptr @find_protocol_by_id(i32 noundef %19)
  %21 = load ptr, ptr %10, align 8
  %22 = getelementptr inbounds nuw %struct._dcerpc_uuid_value, ptr %21, i32 0, i32 0
  store ptr %20, ptr %22, align 8
  %23 = load i32, ptr %5, align 4
  %24 = load ptr, ptr %10, align 8
  %25 = getelementptr inbounds nuw %struct._dcerpc_uuid_value, ptr %24, i32 0, i32 1
  store i32 %23, ptr %25, align 8
  %26 = load ptr, ptr %10, align 8
  %27 = getelementptr inbounds nuw %struct._dcerpc_uuid_value, ptr %26, i32 0, i32 2
  store i32 -1, ptr %27, align 4
  %28 = load ptr, ptr %10, align 8
  %29 = getelementptr inbounds nuw %struct._dcerpc_uuid_value, ptr %28, i32 0, i32 0
  %30 = load ptr, ptr %29, align 8
  %31 = call ptr @proto_get_protocol_short_name(ptr noundef %30)
  %32 = load ptr, ptr %10, align 8
  %33 = getelementptr inbounds nuw %struct._dcerpc_uuid_value, ptr %32, i32 0, i32 3
  store ptr %31, ptr %33, align 8
  %34 = load ptr, ptr %10, align 8
  %35 = getelementptr inbounds nuw %struct._dcerpc_uuid_value, ptr %34, i32 0, i32 5
  store i32 0, ptr %35, align 8
  %36 = load ptr, ptr @dcerpc_uuids, align 8
  %37 = load ptr, ptr %9, align 8
  %38 = call i32 @g_hash_table_contains(ptr noundef %36, ptr noundef %37)
  %39 = icmp ne i32 %38, 0
  br i1 %39, label %40, label %45

40:                                               ; preds = %4
  %41 = load ptr, ptr @dcerpc_uuids, align 8
  %42 = load ptr, ptr %9, align 8
  %43 = call i32 @g_hash_table_remove(ptr noundef %41, ptr noundef %42)
  %44 = load ptr, ptr %6, align 8
  call void @guids_delete_guid(ptr noundef %44)
  br label %45

45:                                               ; preds = %40, %4
  %46 = load ptr, ptr %8, align 8
  %47 = load ptr, ptr %9, align 8
  %48 = load ptr, ptr %10, align 8
  call void @dcerpc_init_finalize(ptr noundef %46, ptr noundef %47, ptr noundef %48)
  call void @llvm.lifetime.end.p0(i64 8, ptr %10) #19
  call void @llvm.lifetime.end.p0(i64 8, ptr %9) #19
  ret void
}