; Function Attrs: null_pointer_is_valid sspstrong uwtable
define void @dcerpc_init_from_handle(i32 noundef %0, ptr noundef %1, i16 noundef zeroext %2, ptr noundef %3) local_unnamed_addr #0 {
  %5 = tail call noalias dereferenceable_or_null(20) ptr @g_malloc(i64 noundef 20) #17
  %6 = tail call noalias dereferenceable_or_null(40) ptr @g_malloc(i64 noundef 40) #17
  tail call void @llvm.memcpy.p0.p0.i64(ptr noundef align 4 dereferenceable(16) %5, ptr noundef align 4 dereferenceable(16) %1, i64 16, i1 false)
  %7 = getelementptr inbounds nuw i8, ptr %5, i64 16
  store i16 %2, ptr %7, align 4
  %8 = tail call ptr @find_protocol_by_id(i32 noundef %0)
  store ptr %8, ptr %6, align 8
  %9 = getelementptr inbounds nuw i8, ptr %6, i64 8
  store i32 %0, ptr %9, align 8
  %10 = getelementptr inbounds nuw i8, ptr %6, i64 12
  store i32 -1, ptr %10, align 4
  %11 = tail call ptr @proto_get_protocol_short_name(ptr noundef %8)
  %12 = getelementptr inbounds nuw i8, ptr %6, i64 16
  store ptr %11, ptr %12, align 8
  %13 = getelementptr inbounds nuw i8, ptr %6, i64 32
  store i32 0, ptr %13, align 8
  %14 = load ptr, ptr @dcerpc_uuids, align 8
  %15 = tail call i32 @g_hash_table_contains(ptr noundef %14, ptr noundef %5)
  %.not = icmp eq i32 %15, 0
  br i1 %.not, label %19, label %16

16:                                               ; preds = %4
  %17 = load ptr, ptr @dcerpc_uuids, align 8
  %18 = tail call i32 @g_hash_table_remove(ptr noundef %17, ptr noundef %5)
  tail call void @guids_delete_guid(ptr noundef %1)
  br label %19

19:                                               ; preds = %16, %4
  tail call fastcc void @dcerpc_init_finalize(ptr noundef %3, ptr noundef %5, ptr noundef %6)
  ret void
}